; Function Attrs: mustprogress uwtable
define { ptr, i32 } @_ZN2cv15ImageCollection5beginEv(ptr noundef nonnull align 8 dereferenceable(16) %0) local_unnamed_addr #4 align 2 {
  %2 = alloca %"struct.cv::ImageCollection::iterator", align 8
  call void @llvm.lifetime.start.p0(i64 16, ptr nonnull %2)
  call void @_ZN2cv15ImageCollection8iteratorC1EPS0_(ptr noundef nonnull align 8 dereferenceable(12) %2, ptr noundef nonnull %0)
  %.fca.0.load.i = load ptr, ptr %2, align 8
  %.fca.0.insert.i = insertvalue { ptr, i32 } poison, ptr %.fca.0.load.i, 0
  %.fca.1.gep.i = getelementptr inbounds nuw i8, ptr %2, i64 8
  %.fca.1.load.i = load i32, ptr %.fca.1.gep.i, align 8
  %.fca.1.insert.i = insertvalue { ptr, i32 } %.fca.0.insert.i, i32 %.fca.1.load.i, 1
  call void @llvm.lifetime.end.p0(i64 16, ptr nonnull %2)
  ret { ptr, i32 } %.fca.1.insert.i
}